; Function Attrs: nounwind uwtable
define internal ptr @test_pytime_monotonic(ptr readnone captures(none) %0, ptr readnone captures(none) %1) #0 {
  %3 = alloca i64, align 8
  call void @llvm.lifetime.start.p0(i64 8, ptr nonnull %3) #4
  %4 = call i32 @PyTime_Monotonic(ptr noundef nonnull %3) #4
  %5 = icmp slt i32 %4, 0
  br i1 %5, label %6, label %10

6:                                                ; preds = %2
  %7 = load i64, ptr %3, align 8, !tbaa !22
  %8 = icmp eq i64 %7, 0
  br i1 %8, label %17, label %9

9:                                                ; preds = %6
  call void @__assert_fail(ptr noundef nonnull @.str.12, ptr noundef nonnull @.str.13, i32 noundef 54, ptr noundef nonnull @__PRETTY_FUNCTION__.test_pytime_monotonic) #5
  unreachable

10:                                               ; preds = %2
  %11 = icmp eq i32 %4, 0
  br i1 %11, label %13, label %12

12:                                               ; preds = %10
  call void @__assert_fail(ptr noundef nonnull @.str.14, ptr noundef nonnull @.str.13, i32 noundef 57, ptr noundef nonnull @__PRETTY_FUNCTION__.test_pytime_monotonic) #5
  unreachable

13:                                               ; preds = %10
  %14 = load i64, ptr %3, align 8, !tbaa !22
  %15 = call double @PyTime_AsSecondsDouble(i64 noundef %14) #4
  %16 = call ptr @PyFloat_FromDouble(double noundef %15) #4
  br label %17

17:                                               ; preds = %6, %13
  %.0 = phi ptr [ %16, %13 ], [ null, %6 ]
  call void @llvm.lifetime.end.p0(i64 8, ptr nonnull %3) #4
  ret ptr %.0
}